; Function Attrs: mustprogress norecurse uwtable
define dso_local noundef i32 @main(i32 noundef %0, ptr noundef readnone captures(none) %1) local_unnamed_addr #0 personality ptr @__gxx_personality_v0 {
  %3 = alloca %"class.pxrInternal_v0_24__pxrReserved__::TfRefPtr", align 8
  %4 = alloca %"class.std::__cxx11::basic_string", align 8
  %5 = alloca %"class.std::allocator", align 1
  %6 = alloca %"class.std::__cxx11::basic_string", align 8
  %7 = alloca %"class.std::allocator", align 1
  call void @_ZN32pxrInternal_v0_24__pxrReserved__8UsdStage14CreateInMemoryENS0_14InitialLoadSetE(ptr dead_on_unwind nonnull writable sret(%"class.pxrInternal_v0_24__pxrReserved__::TfRefPtr") align 8 %3, i32 noundef 0)
  call void @_ZNSaIcEC1Ev(ptr noundef nonnull align 1 dereferenceable(1) %5) #11
  %8 = invoke noundef ptr @_ZNSt7__cxx1112basic_stringIcSt11char_traitsIcESaIcEE13_M_local_dataEv(ptr noundef nonnull align 8 dereferenceable(32) %4)
          to label %.noexc unwind label %40

.noexc:                                           ; preds = %2
  invoke void @_ZNSt7__cxx1112basic_stringIcSt11char_traitsIcESaIcEE12_Alloc_hiderC1EPcRKS3_(ptr noundef nonnull align 8 dereferenceable(32) %4, ptr noundef %8, ptr noundef nonnull align 1 dereferenceable(1) %5)
          to label %.noexc6 unwind label %40

.noexc6:                                          ; preds = %.noexc
  invoke void @_ZNSt7__cxx1112basic_stringIcSt11char_traitsIcESaIcEE12_M_constructIPKcEEvT_S8_St20forward_iterator_tag(ptr noundef nonnull align 8 dereferenceable(32) %4, ptr noundef nonnull @.str, ptr noundef nonnull getelementptr inbounds nuw (i8, ptr @.str, i64 9))
          to label %_ZNSt7__cxx1112basic_stringIcSt11char_traitsIcESaIcEEC2IS3_EEPKcRKS3_.exit unwind label %9

9:                                                ; preds = %.noexc6
  %10 = landingpad { ptr, i32 }
          cleanup
  call void @_ZNSaIcED2Ev(ptr noundef nonnull align 8 dereferenceable(32) %4) #11
  br label %.body

_ZNSt7__cxx1112basic_stringIcSt11char_traitsIcESaIcEEC2IS3_EEPKcRKS3_.exit: ; preds = %.noexc6
  call void @_ZNSaIcED1Ev(ptr noundef nonnull align 1 dereferenceable(1) %5) #11
  invoke fastcc void @_ZL14_OpenAndExportRKNSt7__cxx1112basic_stringIcSt11char_traitsIcESaIcEEE(ptr noundef nonnull align 8 dereferenceable(32) %4)
          to label %11 unwind label %42

11:                                               ; preds = %_ZNSt7__cxx1112basic_stringIcSt11char_traitsIcESaIcEEC2IS3_EEPKcRKS3_.exit
  call void @_ZNSaIcEC1Ev(ptr noundef nonnull align 1 dereferenceable(1) %7) #11
  %12 = invoke noundef ptr @_ZNSt7__cxx1112basic_stringIcSt11char_traitsIcESaIcEE13_M_local_dataEv(ptr noundef nonnull align 8 dereferenceable(32) %6)
          to label %.noexc7 unwind label %44

.noexc7:                                          ; preds = %11
  invoke void @_ZNSt7__cxx1112basic_stringIcSt11char_traitsIcESaIcEE12_Alloc_hiderC1EPcRKS3_(ptr noundef nonnull align 8 dereferenceable(32) %6, ptr noundef %12, ptr noundef nonnull align 1 dereferenceable(1) %7)
          to label %.noexc8 unwind label %44

.noexc8:                                          ; preds = %.noexc7
  invoke void @_ZNSt7__cxx1112basic_stringIcSt11char_traitsIcESaIcEE12_M_constructIPKcEEvT_S8_St20forward_iterator_tag(ptr noundef nonnull align 8 dereferenceable(32) %6, ptr noundef nonnull @.str.1, ptr noundef nonnull getelementptr inbounds nuw (i8, ptr @.str.1, i64 10))
          to label %_ZNSt7__cxx1112basic_stringIcSt11char_traitsIcESaIcEEC2IS3_EEPKcRKS3_.exit11 unwind label %13

13:                                               ; preds = %.noexc8
  %14 = landingpad { ptr, i32 }
          cleanup
  call void @_ZNSaIcED2Ev(ptr noundef nonnull align 8 dereferenceable(32) %6) #11
  br label %.body9

_ZNSt7__cxx1112basic_stringIcSt11char_traitsIcESaIcEEC2IS3_EEPKcRKS3_.exit11: ; preds = %.noexc8
  call void @_ZNSaIcED1Ev(ptr noundef nonnull align 1 dereferenceable(1) %7) #11
  invoke fastcc void @_ZL14_OpenAndExportRKNSt7__cxx1112basic_stringIcSt11char_traitsIcESaIcEEE(ptr noundef nonnull align 8 dereferenceable(32) %6)
          to label %15 unwind label %46

15:                                               ; preds = %_ZNSt7__cxx1112basic_stringIcSt11char_traitsIcESaIcEEC2IS3_EEPKcRKS3_.exit11
  call void @_ZNSt7__cxx1112basic_stringIcSt11char_traitsIcESaIcEED1Ev(ptr noundef nonnull align 8 dereferenceable(32) %6) #11
  call void @_ZNSt7__cxx1112basic_stringIcSt11char_traitsIcESaIcEED1Ev(ptr noundef nonnull align 8 dereferenceable(32) %4) #11
  %16 = load ptr, ptr %3, align 8
  %.not.i.i.i = icmp eq ptr %16, null
  br i1 %.not.i.i.i, label %_ZN32pxrInternal_v0_24__pxrReserved__8TfRefPtrINS_8UsdStageEED2Ev.exit, label %17

17:                                               ; preds = %15
  %18 = getelementptr inbounds nuw i8, ptr %16, i64 8
  %19 = load atomic i32, ptr %18 monotonic, align 4
  %20 = icmp slt i32 %19, 0
  br i1 %20, label %21, label %_ZN32pxrInternal_v0_24__pxrReserved__30Tf_RefPtr_UniqueChangedCounter9RemoveRefEPKNS_9TfRefBaseE.exit.i.i

21:                                               ; preds = %17
  %.not68.i.i.i = icmp eq i32 %19, -2
  br i1 %.not68.i.i.i, label %29, label %22

22:                                               ; preds = %21
  %23 = add nsw i32 %19, 1
  %24 = cmpxchg weak ptr %18, i32 %19, i32 %23 release monotonic, align 4
  %25 = extractvalue { i32, i1 } %24, 1
  %26 = extractvalue { i32, i1 } %24, 0
  br i1 %25, label %27, label %29

27:                                               ; preds = %22
  %28 = icmp eq i32 %19, -1
  br i1 %28, label %33, label %_ZN32pxrInternal_v0_24__pxrReserved__8TfRefPtrINS_8UsdStageEED2Ev.exit

29:                                               ; preds = %22, %21
  %.067.i.i.i = phi i32 [ %26, %22 ], [ -2, %21 ]
  %30 = invoke noundef zeroext i1 @_ZN32pxrInternal_v0_24__pxrReserved__30Tf_RefPtr_UniqueChangedCounter21_RemoveRefMaybeLockedEPKNS_9TfRefBaseEi(ptr noundef nonnull %16, i32 noundef %.067.i.i.i)
          to label %.noexc.i unwind label %37

.noexc.i:                                         ; preds = %29
  br i1 %30, label %33, label %_ZN32pxrInternal_v0_24__pxrReserved__8TfRefPtrINS_8UsdStageEED2Ev.exit

_ZN32pxrInternal_v0_24__pxrReserved__30Tf_RefPtr_UniqueChangedCounter9RemoveRefEPKNS_9TfRefBaseE.exit.i.i: ; preds = %17
  %31 = atomicrmw sub ptr %18, i32 1 release, align 4
  %32 = icmp eq i32 %31, 1
  br i1 %32, label %33, label %_ZN32pxrInternal_v0_24__pxrReserved__8TfRefPtrINS_8UsdStageEED2Ev.exit

33:                                               ; preds = %_ZN32pxrInternal_v0_24__pxrReserved__30Tf_RefPtr_UniqueChangedCounter9RemoveRefEPKNS_9TfRefBaseE.exit.i.i, %.noexc.i, %27
  %34 = load ptr, ptr %16, align 8
  %35 = getelementptr inbounds nuw i8, ptr %34, i64 8
  %36 = load ptr, ptr %35, align 8
  call void %36(ptr noundef nonnull align 8 dereferenceable(12) %16) #11
  br label %_ZN32pxrInternal_v0_24__pxrReserved__8TfRefPtrINS_8UsdStageEED2Ev.exit

37:                                               ; preds = %29
  %38 = landingpad { ptr, i32 }
          catch ptr null
  %39 = extractvalue { ptr, i32 } %38, 0
  call void @__clang_call_terminate(ptr %39) #12
  unreachable

_ZN32pxrInternal_v0_24__pxrReserved__8TfRefPtrINS_8UsdStageEED2Ev.exit: ; preds = %15, %27, %.noexc.i, %_ZN32pxrInternal_v0_24__pxrReserved__30Tf_RefPtr_UniqueChangedCounter9RemoveRefEPKNS_9TfRefBaseE.exit.i.i, %33
  ret i32 0

40:                                               ; preds = %.noexc, %2
  %41 = landingpad { ptr, i32 }
          cleanup
  br label %.body

.body:                                            ; preds = %9, %40
  %eh.lpad-body = phi { ptr, i32 } [ %41, %40 ], [ %10, %9 ]
  call void @_ZNSaIcED1Ev(ptr noundef nonnull align 1 dereferenceable(1) %5) #11
  br label %49

42:                                               ; preds = %_ZNSt7__cxx1112basic_stringIcSt11char_traitsIcESaIcEEC2IS3_EEPKcRKS3_.exit
  %43 = landingpad { ptr, i32 }
          cleanup
  br label %48

44:                                               ; preds = %.noexc7, %11
  %45 = landingpad { ptr, i32 }
          cleanup
  br label %.body9

.body9:                                           ; preds = %13, %44
  %eh.lpad-body10 = phi { ptr, i32 } [ %45, %44 ], [ %14, %13 ]
  call void @_ZNSaIcED1Ev(ptr noundef nonnull align 1 dereferenceable(1) %7) #11
  br label %48

46:                                               ; preds = %_ZNSt7__cxx1112basic_stringIcSt11char_traitsIcESaIcEEC2IS3_EEPKcRKS3_.exit11
  %47 = landingpad { ptr, i32 }
          cleanup
  call void @_ZNSt7__cxx1112basic_stringIcSt11char_traitsIcESaIcEED1Ev(ptr noundef nonnull align 8 dereferenceable(32) %6) #11
  br label %48

48:                                               ; preds = %46, %.body9, %42
  %.pn = phi { ptr, i32 } [ %47, %46 ], [ %eh.lpad-body10, %.body9 ], [ %43, %42 ]
  call void @_ZNSt7__cxx1112basic_stringIcSt11char_traitsIcESaIcEED1Ev(ptr noundef nonnull align 8 dereferenceable(32) %4) #11
  br label %49

49:                                               ; preds = %48, %.body
  %.pn.pn = phi { ptr, i32 } [ %.pn, %48 ], [ %eh.lpad-body, %.body ]
  call void @_ZN32pxrInternal_v0_24__pxrReserved__8TfRefPtrINS_8UsdStageEED2Ev(ptr noundef nonnull align 8 dereferenceable(8) %3) #11
  resume { ptr, i32 } %.pn.pn
}